Certificate:
    Data:
        Version: 3 (0x2)
        Serial Number:
            fc:c3:5f:f2:bc:40:1c:d7:c6:68:e5:1d:80:3d:db:77
        Signature Algorithm: sha256WithRSAEncryption
        Issuer: CN=server
        Validity
            Not Before: Nov 12 00:20:16 2023 GMT
            Not After : Feb 14 00:20:16 2026 GMT
        Subject: CN=client1
        Subject Public Key Info:
            Public Key Algorithm: rsaEncryption
                Public-Key: (2048 bit)
                Modulus:
                    00:bb:b8:51:86:c4:f9:64:e7:e7:24:03:66:98:fb:
                    03:25:8a:2b:7b:70:7f:64:bb:81:14:fd:b6:13:bd:
                    bb:1a:c6:1c:c4:ae:91:c3:18:96:c5:70:16:37:fd:
                    ce:56:c7:01:97:9d:2f:4c:f2:94:ea:dd:3e:cf:47:
                    7b:76:10:e3:90:d2:59:6a:9b:34:b9:d8:2a:4f:8b:
                    b0:eb:48:39:c8:ed:61:0b:37:74:28:af:80:49:86:
                    34:a2:0e:4c:80:c7:2a:f2:08:75:29:a3:ef:ab:b0:
                    47:cc:4c:1d:fa:4f:00:16:46:bc:85:61:07:3b:49:
                    7d:64:53:49:c1:0a:e4:3a:8b:76:87:e4:e9:84:32:
                    aa:8e:3c:07:65:e1:08:fa:3d:f7:50:a5:7d:00:ee:
                    ad:3b:ba:21:5a:91:b2:46:27:ff:8e:73:94:53:8f:
                    9a:03:ae:4d:03:e9:20:f1:80:62:2d:ea:e9:73:ea:
                    18:96:82:47:59:4a:30:2e:92:04:4b:6f:59:ee:54:
                    67:2d:18:52:58:95:c0:38:c4:0c:a3:5f:03:1a:90:
                    79:d9:5f:86:25:0c:90:c9:48:42:b6:5e:e1:f5:a2:
                    36:05:f6:d2:78:f0:ab:7d:f3:77:5f:18:2d:5e:13:
                    6b:84:f8:dc:a5:19:2a:59:a7:69:47:f8:29:45:f7:
                    8f:8b
                Exponent: 65537 (0x10001)
        X509v3 extensions:
            X509v3 Basic Constraints: 
                CA:FALSE
            X509v3 Subject Key Identifier: 
                F6:9F:39:52:A0:FD:8C:2A:28:9B:DB:D7:90:8F:7E:E5:79:21:43:0E
            X509v3 Authority Key Identifier: 
                keyid:5B:51:2F:2A:E6:2C:F3:9B:59:91:15:3D:42:32:0E:FF:B7:1B:FA:01
                DirName:/CN=server
                serial:30:DA:84:08:D3:29:4C:F1:E0:C4:AF:DE:56:AD:27:E5:57:70:FD:A1
            X509v3 Extended Key Usage: 
                TLS Web Client Authentication
            X509v3 Key Usage: 
                Digital Signature
    Signature Algorithm: sha256WithRSAEncryption
    Signature Value:
        46:75:63:5e:cd:36:a1:04:11:0d:b7:aa:30:79:b8:e8:ec:77:
        6f:da:b4:7e:d2:1a:d7:49:5e:70:c8:62:52:dc:9e:aa:7f:f5:
        67:be:8f:81:45:20:52:c9:b0:7c:19:ee:36:45:ef:1c:2f:77:
        5f:40:95:0c:6a:71:b9:1a:b2:fc:9e:b7:66:bc:82:75:da:e3:
        0d:89:1e:9d:16:b4:7b:95:7c:89:cd:92:1c:5e:6f:ca:cd:d1:
        86:a9:88:dd:97:a7:89:f3:b1:17:14:f4:b3:29:f0:67:bb:01:
        e8:56:69:d1:f3:f4:55:64:a0:58:28:1a:77:59:95:06:61:ee:
        f8:b5:28:54:f3:1c:3a:2a:c4:d2:6d:19:3d:6e:bb:b2:13:29:
        6d:f4:8c:f9:55:1c:97:36:c1:00:2e:bd:f2:28:40:f6:43:87:
        df:b4:e5:53:20:16:10:3f:c2:cc:8f:c1:49:1b:65:fe:f7:4e:
        60:10:13:35:48:26:67:cb:3f:04:c9:f1:93:03:80:82:28:03:
        9f:24:fa:21:21:41:96:9b:57:db:32:d8:b9:2e:64:8b:de:d8:
        60:ef:ac:78:db:da:b4:e2:eb:17:db:b0:3c:02:7a:56:28:29:
        19:77:18:4c:34:fa:67:82:a9:0c:9b:1e:4b:9a:89:29:5c:b6:
        e8:e5:6e:0e
-----BEGIN CERTIFICATE-----
MIIDTDCCAjSgAwIBAgIRAPzDX/K8QBzXxmjlHYA923cwDQYJKoZIhvcNAQELBQAw
ETEPMA0GA1UEAwwGc2VydmVyMB4XDTIzMTExMjAwMjAxNloXDTI2MDIxNDAwMjAx
NlowEjEQMA4GA1UEAwwHY2xpZW50MTCCASIwDQYJKoZIhvcNAQEBBQADggEPADCC
AQoCggEBALu4UYbE+WTn5yQDZpj7AyWKK3twf2S7gRT9thO9uxrGHMSukcMYlsVw
Fjf9zlbHAZedL0zylOrdPs9He3YQ45DSWWqbNLnYKk+LsOtIOcjtYQs3dCivgEmG
NKIOTIDHKvIIdSmj76uwR8xMHfpPABZGvIVhBztJfWRTScEK5DqLdofk6YQyqo48
B2XhCPo991ClfQDurTu6IVqRskYn/45zlFOPmgOuTQPpIPGAYi3q6XPqGJaCR1lK
MC6SBEtvWe5UZy0YUliVwDjEDKNfAxqQedlfhiUMkMlIQrZe4fWiNgX20njwq33z
d18YLV4Ta4T43KUZKlmnaUf4KUX3j4sCAwEAAaOBnTCBmjAJBgNVHRMEAjAAMB0G
A1UdDgQWBBT2nzlSoP2MKiib29eQj37leSFDDjBMBgNVHSMERTBDgBRbUS8q5izz
m1mRFT1CMg7/txv6AaEVpBMwETEPMA0GA1UEAwwGc2VydmVyghQw2oQI0ylM8eDE
r95WrSflV3D9oTATBgNVHSUEDDAKBggrBgEFBQcDAjALBgNVHQ8EBAMCB4AwDQYJ
KoZIhvcNAQELBQADggEBAEZ1Y17NNqEEEQ23qjB5uOjsd2/atH7SGtdJXnDIYlLc
nqp/9We+j4FFIFLJsHwZ7jZF7xwvd19AlQxqcbkasvyet2a8gnXa4w2JHp0WtHuV
fInNkhxeb8rN0YapiN2Xp4nzsRcU9LMp8Ge7AehWadHz9FVkoFgoGndZlQZh7vi1
KFTzHDoqxNJtGT1uu7ITKW30jPlVHJc2wQAuvfIoQPZDh9+05VMgFhA/wsyPwUkb
Zf73TmAQEzVIJmfLPwTJ8ZMDgIIoA58k+iEhQZabV9sy2LkuZIve2GDvrHjb2rTi
6xfbsDwCelYoKRl3GEw0+meCqQybHkuaiSlctujlbg4=
-----END CERTIFICATE-----
