Certificate:
    Data:
        Version: 3 (0x2)
        Serial Number:
            3d:3a:96:da:53:f2:8a:16:1a:18:74:59:84:2d:d7:31
        Signature Algorithm: sha256WithRSAEncryption
        Issuer: CN=miles-jump
        Validity
            Not Before: Nov 11 20:24:02 2023 GMT
            Not After : Feb 13 20:24:02 2026 GMT
        Subject: CN=server
        Subject Public Key Info:
            Public Key Algorithm: rsaEncryption
                Public-Key: (2048 bit)
                Modulus:
                    00:b3:c0:e6:60:02:8e:50:51:7d:cf:aa:22:03:f7:
                    7d:1c:14:eb:e6:f5:f8:aa:85:96:4e:40:d5:98:23:
                    33:66:78:ed:a3:ea:96:ad:94:94:ca:3b:fb:33:a3:
                    27:28:04:0f:61:43:8b:f2:eb:05:10:c8:18:8b:ae:
                    77:5f:ef:6a:9a:2f:99:27:c0:4b:00:29:f4:51:ac:
                    bb:22:a0:87:f1:23:f9:c8:5f:69:ad:49:80:86:be:
                    3a:f7:92:21:3f:74:cc:8c:90:7c:92:df:f1:86:a0:
                    5f:90:40:f2:30:6c:65:c2:76:98:71:9e:a0:58:9c:
                    e1:e2:e4:ce:0a:58:33:3f:0a:09:79:f2:95:95:f2:
                    7e:5a:b9:33:96:f7:a9:ab:7a:f0:67:05:9e:d0:d0:
                    7e:27:4c:c0:0b:38:26:54:0a:da:3d:72:2a:32:e0:
                    e5:c7:cd:1b:b4:c7:21:a1:2c:df:14:d9:28:2e:a8:
                    99:9d:89:87:87:e8:4f:7f:f0:85:62:c2:48:ac:6d:
                    10:92:f4:f0:24:a4:95:f4:d0:03:7f:0f:d5:0d:73:
                    9c:de:17:aa:ac:ee:74:1e:ec:54:ee:43:57:54:af:
                    b5:c5:53:d7:35:0f:76:a9:7f:b6:02:94:ab:9e:09:
                    1f:f7:72:67:bb:fe:c7:f5:e2:4b:d5:f9:83:d3:0a:
                    34:07
                Exponent: 65537 (0x10001)
        X509v3 extensions:
            X509v3 Basic Constraints: 
                CA:FALSE
            X509v3 Subject Key Identifier: 
                26:EA:24:3E:A1:B6:53:5A:36:9F:AF:F5:7E:76:13:2C:FD:82:2A:32
            X509v3 Authority Key Identifier: 
                keyid:56:EC:CE:F1:26:DC:48:18:12:EB:17:CD:63:CE:A6:2D:12:3E:8D:A4
                DirName:/CN=miles-jump
                serial:3B:3E:B6:DE:CC:2B:CA:6E:0B:D7:A2:E7:C1:34:6C:F4:E4:52:C4:4D
            X509v3 Extended Key Usage: 
                TLS Web Server Authentication
            X509v3 Key Usage: 
                Digital Signature, Key Encipherment
            X509v3 Subject Alternative Name: 
                DNS:server
    Signature Algorithm: sha256WithRSAEncryption
    Signature Value:
        b9:61:02:8e:7c:41:64:b5:a8:7f:ee:69:cf:a8:f5:7d:a2:2e:
        0d:3e:f2:5c:8e:6d:0b:94:57:1b:c8:24:60:95:c5:e8:ff:cd:
        57:d2:3c:d6:0e:89:b7:10:8a:2c:cc:1f:14:6a:cb:38:6c:ee:
        77:49:9b:04:e5:31:71:ea:62:61:e3:35:09:ef:8d:14:d4:5e:
        47:f5:88:7e:29:55:0a:5e:d5:2c:77:93:9e:5b:8b:2c:94:22:
        f6:02:3e:6d:a1:52:83:8f:57:f5:b5:e9:39:19:a5:ec:fc:a4:
        92:80:e6:b0:92:a6:f3:78:9e:db:e8:d2:ab:d3:52:d2:c8:3b:
        2e:81:fe:9f:8a:d6:2e:73:7f:18:34:6f:b7:06:c6:22:82:31:
        3e:a3:71:c5:df:a8:8c:7b:f2:54:87:48:ff:6d:e1:cc:69:fb:
        2a:f3:fc:b3:ca:d7:69:cc:4d:b4:09:29:69:ce:34:15:85:a3:
        30:27:98:d3:70:b9:d9:2a:f0:90:c3:14:4f:ab:59:db:66:c2:
        53:59:72:af:f4:3b:88:4e:72:0e:26:1a:3c:a7:d7:24:2f:4f:
        ef:d3:f0:2d:7f:63:39:6c:ec:c0:d8:3a:3d:a6:1c:97:aa:7d:
        63:a2:56:9a:1b:e0:17:92:84:44:73:1c:4f:7a:f3:91:f5:53:
        e1:b3:23:dd
-----BEGIN CERTIFICATE-----
MIIDZTCCAk2gAwIBAgIQPTqW2lPyihYaGHRZhC3XMTANBgkqhkiG9w0BAQsFADAV
MRMwEQYDVQQDDAptaWxlcy1qdW1wMB4XDTIzMTExMTIwMjQwMloXDTI2MDIxMzIw
MjQwMlowETEPMA0GA1UEAwwGc2VydmVyMIIBIjANBgkqhkiG9w0BAQEFAAOCAQ8A
MIIBCgKCAQEAs8DmYAKOUFF9z6oiA/d9HBTr5vX4qoWWTkDVmCMzZnjto+qWrZSU
yjv7M6MnKAQPYUOL8usFEMgYi653X+9qmi+ZJ8BLACn0Uay7IqCH8SP5yF9prUmA
hr4695IhP3TMjJB8kt/xhqBfkEDyMGxlwnaYcZ6gWJzh4uTOClgzPwoJefKVlfJ+
Wrkzlvepq3rwZwWe0NB+J0zACzgmVAraPXIqMuDlx80btMchoSzfFNkoLqiZnYmH
h+hPf/CFYsJIrG0QkvTwJKSV9NADfw/VDXOc3heqrO50HuxU7kNXVK+1xVPXNQ92
qX+2ApSrngkf93Jnu/7H9eJL1fmD0wo0BwIDAQABo4G0MIGxMAkGA1UdEwQCMAAw
HQYDVR0OBBYEFCbqJD6htlNaNp+v9X52Eyz9gioyMFAGA1UdIwRJMEeAFFbszvEm
3EgYEusXzWPOpi0SPo2koRmkFzAVMRMwEQYDVQQDDAptaWxlcy1qdW1wghQ7Prbe
zCvKbgvXoufBNGz05FLETTATBgNVHSUEDDAKBggrBgEFBQcDATALBgNVHQ8EBAMC
BaAwEQYDVR0RBAowCIIGc2VydmVyMA0GCSqGSIb3DQEBCwUAA4IBAQC5YQKOfEFk
tah/7mnPqPV9oi4NPvJcjm0LlFcbyCRglcXo/81X0jzWDom3EIoszB8Uass4bO53
SZsE5TFx6mJh4zUJ740U1F5H9Yh+KVUKXtUsd5OeW4sslCL2Aj5toVKDj1f1tek5
GaXs/KSSgOawkqbzeJ7b6NKr01LSyDsugf6fitYuc38YNG+3BsYigjE+o3HF36iM
e/JUh0j/beHMafsq8/yzytdpzE20CSlpzjQVhaMwJ5jTcLnZKvCQwxRPq1nbZsJT
WXKv9DuITnIOJho8p9ckL0/v0/Atf2M5bOzA2Do9phyXqn1jolaaG+AXkoREcxxP
evOR9VPhsyPd
-----END CERTIFICATE-----
