Certificate:
    Data:
        Version: 3 (0x2)
        Serial Number:
            3c:2a:cc:0c:4e:7f:f8:66:3e:c7:dd:2e:42:e6:97:19
        Signature Algorithm: sha256WithRSAEncryption
        Issuer: CN=miles-jump
        Validity
            Not Before: Nov 11 22:36:04 2023 GMT
            Not After : Feb 13 22:36:04 2026 GMT
        Subject: CN=Tanisha
        Subject Public Key Info:
            Public Key Algorithm: rsaEncryption
                Public-Key: (2048 bit)
                Modulus:
                    00:af:50:8c:59:96:12:9a:55:b2:90:6f:0a:e2:1a:
                    ba:03:7b:5d:bb:27:7f:44:bc:8c:e6:0b:fa:99:e7:
                    be:4c:c7:06:db:16:b2:71:cb:62:b9:02:c4:d0:66:
                    54:d5:fa:38:a8:3b:60:51:35:b3:0c:2c:73:10:d2:
                    fd:22:8d:ae:10:c9:bb:55:68:b4:aa:25:c0:9d:f9:
                    ae:fe:c2:64:bf:00:26:24:48:7b:2b:4b:b6:40:51:
                    63:fe:ab:b0:17:27:9a:18:d6:47:95:10:28:66:db:
                    85:e7:b5:52:ed:94:34:a4:f2:4a:d9:b0:b5:ff:83:
                    b6:23:a6:7a:ce:c6:13:18:ca:40:63:f6:db:0b:59:
                    65:f0:9a:28:be:82:33:b3:19:1c:d9:3f:14:d7:32:
                    ea:e5:a3:89:ed:30:c0:0e:02:14:82:87:b1:0c:e8:
                    85:c2:34:68:e9:33:a1:f5:86:6e:2b:03:2c:af:5c:
                    f3:5e:80:ff:88:68:83:cb:4b:20:2c:28:b5:1d:f9:
                    5c:90:94:1c:df:a6:1e:13:25:17:28:60:c0:b3:03:
                    cf:4e:4e:2f:d5:94:ab:ae:6a:a2:f1:e8:0d:bc:ef:
                    5c:33:4e:37:ab:15:2d:79:b7:ed:39:48:b8:14:1c:
                    99:87:94:16:78:f2:82:5f:51:11:52:d9:c2:cb:78:
                    3e:37
                Exponent: 65537 (0x10001)
        X509v3 extensions:
            X509v3 Basic Constraints: 
                CA:FALSE
            X509v3 Subject Key Identifier: 
                CB:99:A3:1D:1E:CD:99:E1:45:C5:FA:8F:DB:E4:C1:A3:01:BA:1E:54
            X509v3 Authority Key Identifier: 
                keyid:56:EC:CE:F1:26:DC:48:18:12:EB:17:CD:63:CE:A6:2D:12:3E:8D:A4
                DirName:/CN=miles-jump
                serial:3B:3E:B6:DE:CC:2B:CA:6E:0B:D7:A2:E7:C1:34:6C:F4:E4:52:C4:4D
            X509v3 Extended Key Usage: 
                TLS Web Client Authentication
            X509v3 Key Usage: 
                Digital Signature
    Signature Algorithm: sha256WithRSAEncryption
    Signature Value:
        ba:40:df:c6:da:2e:a6:0c:1d:26:b6:36:65:33:77:0e:a6:36:
        c3:a9:3b:ea:29:3b:8f:7a:94:5b:e3:e0:0f:ac:6d:b8:c2:52:
        2a:c5:16:4e:22:0b:fa:a1:76:79:8c:68:4b:93:bd:d8:92:dd:
        f5:4f:59:52:e1:c8:ed:5b:89:03:09:53:11:41:45:c0:2f:82:
        27:4f:f7:b1:a7:7d:a0:97:ec:46:a8:73:28:f7:9b:5b:2c:b1:
        3e:cf:39:22:f0:72:4c:5b:ca:c3:50:b3:9c:7f:b7:be:83:96:
        01:9d:58:3c:4c:d6:25:8d:f8:b3:33:24:11:3b:24:27:6f:4e:
        9b:c0:6d:bf:07:96:09:bb:21:92:a3:50:80:45:a4:48:79:83:
        80:69:51:d4:ac:2c:e0:bc:f5:2a:25:60:79:59:5b:bf:1e:3f:
        9d:94:ee:db:69:77:f1:3f:0e:51:cb:74:94:fc:f9:8a:6a:a9:
        50:6b:31:67:90:93:ac:b2:99:06:88:50:47:1c:9a:83:61:5d:
        cc:50:f0:76:67:7f:df:3d:17:5f:f2:2b:f0:4a:c8:89:55:71:
        88:be:61:fd:fb:78:6a:0f:f2:ad:4f:59:f8:b9:dd:bf:fa:dd:
        4a:18:bc:4e:c4:03:43:76:03:e7:f2:9e:69:1f:16:e0:54:bf:
        f1:cd:24:ff
-----BEGIN CERTIFICATE-----
MIIDUzCCAjugAwIBAgIQPCrMDE5/+GY+x90uQuaXGTANBgkqhkiG9w0BAQsFADAV
MRMwEQYDVQQDDAptaWxlcy1qdW1wMB4XDTIzMTExMTIyMzYwNFoXDTI2MDIxMzIy
MzYwNFowEjEQMA4GA1UEAwwHVGFuaXNoYTCCASIwDQYJKoZIhvcNAQEBBQADggEP
ADCCAQoCggEBAK9QjFmWEppVspBvCuIaugN7Xbsnf0S8jOYL+pnnvkzHBtsWsnHL
YrkCxNBmVNX6OKg7YFE1swwscxDS/SKNrhDJu1VotKolwJ35rv7CZL8AJiRIeytL
tkBRY/6rsBcnmhjWR5UQKGbbhee1Uu2UNKTyStmwtf+DtiOmes7GExjKQGP22wtZ
ZfCaKL6CM7MZHNk/FNcy6uWjie0wwA4CFIKHsQzohcI0aOkzofWGbisDLK9c816A
/4hog8tLICwotR35XJCUHN+mHhMlFyhgwLMDz05OL9WUq65qovHoDbzvXDNON6sV
LXm37TlIuBQcmYeUFnjygl9REVLZwst4PjcCAwEAAaOBoTCBnjAJBgNVHRMEAjAA
MB0GA1UdDgQWBBTLmaMdHs2Z4UXF+o/b5MGjAboeVDBQBgNVHSMESTBHgBRW7M7x
JtxIGBLrF81jzqYtEj6NpKEZpBcwFTETMBEGA1UEAwwKbWlsZXMtanVtcIIUOz62
3swrym4L16LnwTRs9ORSxE0wEwYDVR0lBAwwCgYIKwYBBQUHAwIwCwYDVR0PBAQD
AgeAMA0GCSqGSIb3DQEBCwUAA4IBAQC6QN/G2i6mDB0mtjZlM3cOpjbDqTvqKTuP
epRb4+APrG24wlIqxRZOIgv6oXZ5jGhLk73Ykt31T1lS4cjtW4kDCVMRQUXAL4In
T/exp32gl+xGqHMo95tbLLE+zzki8HJMW8rDULOcf7e+g5YBnVg8TNYljfizMyQR
OyQnb06bwG2/B5YJuyGSo1CARaRIeYOAaVHUrCzgvPUqJWB5WVu/Hj+dlO7baXfx
Pw5Ry3SU/PmKaqlQazFnkJOsspkGiFBHHJqDYV3MUPB2Z3/fPRdf8ivwSsiJVXGI
vmH9+3hqD/KtT1n4ud2/+t1KGLxOxANDdgPn8p5pHxbgVL/xzST/
-----END CERTIFICATE-----
