Certificate:
    Data:
        Version: 3 (0x2)
        Serial Number:
            79:3f:f3:f1:03:67:72:8c:26:56:ba:9d:11:97:59:8e
        Signature Algorithm: sha256WithRSAEncryption
        Issuer: CN=server
        Validity
            Not Before: Nov 12 00:19:53 2023 GMT
            Not After : Feb 14 00:19:53 2026 GMT
        Subject: CN=server
        Subject Public Key Info:
            Public Key Algorithm: rsaEncryption
                Public-Key: (2048 bit)
                Modulus:
                    00:ed:98:14:14:91:b6:25:d9:47:3e:c4:3d:42:81:
                    ca:2d:a3:88:ed:84:33:02:16:46:38:96:d8:3c:85:
                    09:5e:e5:26:9f:47:be:45:35:21:54:ba:c5:27:a3:
                    aa:6c:c3:5c:ad:e3:b2:e8:8a:e7:59:0c:52:74:c2:
                    96:59:d4:aa:09:e2:9f:c8:8c:c2:22:a2:50:20:75:
                    b5:06:14:2b:01:bc:00:c3:72:3d:de:2f:ae:0b:39:
                    a9:14:75:1a:9a:83:d9:f5:2b:86:3e:82:9a:ad:55:
                    f5:41:38:e9:14:67:8e:76:fc:0d:e7:4a:06:c2:af:
                    5f:6a:f2:e4:19:71:3c:ce:65:3a:aa:6e:c5:6d:09:
                    e0:23:87:12:6c:d8:9e:e0:9f:85:5c:10:46:fa:45:
                    f4:13:b8:3a:6c:b2:a8:cf:56:b9:00:44:ce:26:8b:
                    fa:88:91:9d:16:10:ef:b2:e4:19:fd:17:e0:cd:f4:
                    06:a5:c0:ca:83:5d:6f:23:0b:ad:5f:0a:dc:ac:f1:
                    49:61:46:c4:9e:c5:23:b8:3b:b5:21:bd:ea:fe:3a:
                    59:26:60:32:98:66:eb:a3:35:2e:67:22:2f:e3:a4:
                    e4:81:e6:7a:77:f0:fc:db:fe:46:3f:26:51:25:01:
                    85:02:e6:21:ce:0b:e2:3c:67:d5:54:d7:2e:2d:3c:
                    68:d5
                Exponent: 65537 (0x10001)
        X509v3 extensions:
            X509v3 Basic Constraints: 
                CA:FALSE
            X509v3 Subject Key Identifier: 
                F0:92:79:9A:AC:82:88:AA:8D:55:FB:F9:5D:88:BE:2F:22:BC:A8:30
            X509v3 Authority Key Identifier: 
                keyid:5B:51:2F:2A:E6:2C:F3:9B:59:91:15:3D:42:32:0E:FF:B7:1B:FA:01
                DirName:/CN=server
                serial:30:DA:84:08:D3:29:4C:F1:E0:C4:AF:DE:56:AD:27:E5:57:70:FD:A1
            X509v3 Extended Key Usage: 
                TLS Web Server Authentication
            X509v3 Key Usage: 
                Digital Signature, Key Encipherment
            X509v3 Subject Alternative Name: 
                DNS:server
    Signature Algorithm: sha256WithRSAEncryption
    Signature Value:
        36:0d:58:b6:21:ec:97:8c:cc:7f:3b:6d:23:00:88:ea:8b:c3:
        12:e5:4a:10:19:cb:c5:81:a8:49:35:ae:81:1e:61:79:3c:ec:
        8e:77:96:37:e2:ab:99:d9:3a:44:97:e4:30:46:d5:3c:0a:85:
        cf:f2:a9:f5:54:c8:5e:74:b1:d6:6d:87:81:2c:13:52:f6:1a:
        23:79:48:0e:99:12:5c:5d:fb:8f:2e:8c:22:0d:31:84:f9:7d:
        7c:19:89:04:15:60:b0:03:b9:88:dc:f7:06:99:dc:e8:ed:c6:
        b0:8e:4b:e1:13:63:28:6a:3c:78:73:bc:09:4d:88:29:95:48:
        c6:79:b5:5f:89:56:70:aa:cf:98:d4:da:e9:0c:48:a6:4d:37:
        e9:d0:42:4a:1b:bb:51:46:c8:07:a6:0a:1c:53:57:9a:48:88:
        60:b6:cd:44:f8:c5:0c:64:73:56:c1:ec:91:7d:83:57:73:a5:
        f3:5b:37:89:7b:82:c9:b6:da:8d:01:6c:73:dc:85:c1:2d:03:
        a8:1e:0e:e2:71:34:8e:99:19:e9:fd:ed:55:8f:f5:69:41:31:
        34:70:43:e1:b5:66:bc:ed:53:9d:5a:3f:d6:a2:87:5a:38:f4:
        66:9b:39:01:b9:50:a8:1a:d3:a3:34:82:90:19:8b:d9:ab:96:
        d0:72:64:d7
-----BEGIN CERTIFICATE-----
MIIDXTCCAkWgAwIBAgIQeT/z8QNncowmVrqdEZdZjjANBgkqhkiG9w0BAQsFADAR
MQ8wDQYDVQQDDAZzZXJ2ZXIwHhcNMjMxMTEyMDAxOTUzWhcNMjYwMjE0MDAxOTUz
WjARMQ8wDQYDVQQDDAZzZXJ2ZXIwggEiMA0GCSqGSIb3DQEBAQUAA4IBDwAwggEK
AoIBAQDtmBQUkbYl2Uc+xD1Cgcoto4jthDMCFkY4ltg8hQle5SafR75FNSFUusUn
o6psw1yt47LoiudZDFJ0wpZZ1KoJ4p/IjMIiolAgdbUGFCsBvADDcj3eL64LOakU
dRqag9n1K4Y+gpqtVfVBOOkUZ452/A3nSgbCr19q8uQZcTzOZTqqbsVtCeAjhxJs
2J7gn4VcEEb6RfQTuDpssqjPVrkARM4mi/qIkZ0WEO+y5Bn9F+DN9AalwMqDXW8j
C61fCtys8UlhRsSexSO4O7Uhver+OlkmYDKYZuujNS5nIi/jpOSB5np38Pzb/kY/
JlElAYUC5iHOC+I8Z9VU1y4tPGjVAgMBAAGjgbAwga0wCQYDVR0TBAIwADAdBgNV
HQ4EFgQU8JJ5mqyCiKqNVfv5XYi+LyK8qDAwTAYDVR0jBEUwQ4AUW1EvKuYs85tZ
kRU9QjIO/7cb+gGhFaQTMBExDzANBgNVBAMMBnNlcnZlcoIUMNqECNMpTPHgxK/e
Vq0n5Vdw/aEwEwYDVR0lBAwwCgYIKwYBBQUHAwEwCwYDVR0PBAQDAgWgMBEGA1Ud
EQQKMAiCBnNlcnZlcjANBgkqhkiG9w0BAQsFAAOCAQEANg1YtiHsl4zMfzttIwCI
6ovDEuVKEBnLxYGoSTWugR5heTzsjneWN+Krmdk6RJfkMEbVPAqFz/Kp9VTIXnSx
1m2HgSwTUvYaI3lIDpkSXF37jy6MIg0xhPl9fBmJBBVgsAO5iNz3Bpnc6O3GsI5L
4RNjKGo8eHO8CU2IKZVIxnm1X4lWcKrPmNTa6QxIpk036dBCShu7UUbIB6YKHFNX
mkiIYLbNRPjFDGRzVsHskX2DV3Ol81s3iXuCybbajQFsc9yFwS0DqB4O4nE0jpkZ
6f3tVY/1aUExNHBD4bVmvO1TnVo/1qKHWjj0Zps5AblQqBrTozSCkBmL2auW0HJk
1w==
-----END CERTIFICATE-----
